target datalayout = "e-m:e-p270:32:32-p271:32:32-p272:64:64-i64:64-i128:128-f80:128-n8:16:32:64-S128"
target triple = "x86_64-pc-linux-gnu"

; Function Attrs: mustprogress nounwind uwtable
define internal noundef i32 @_ZL19find_previous_indexiPKdi(i32 noundef %0, ptr noundef %1, i32 noundef %2) #0 {
  %4 = alloca i32, align 4
  %5 = alloca ptr, align 8
  %6 = alloca i32, align 4
  %7 = alloca i32, align 4
  store i32 %0, ptr %4, align 4
  store ptr %1, ptr %5, align 8
  store i32 %2, ptr %6, align 4
  %8 = load i32, ptr %4, align 4
  %9 = sub nsw i32 %8, 1
  store i32 %9, ptr %7, align 4
  %10 = load i32, ptr %7, align 4
  %11 = icmp eq i32 %10, -1
  br i1 %11, label %12, label %15

12:                                               ; preds = %3
  %13 = load i32, ptr %6, align 4
  %14 = sub nsw i32 %13, 1
  store i32 %14, ptr %7, align 4
  br label %15

15:                                               ; preds = %12, %3
  br label %16

16:                                               ; preds = %37, %15
  %17 = load ptr, ptr %5, align 8
  %18 = load i32, ptr %7, align 4
  %19 = sext i32 %18 to i64
  %20 = getelementptr inbounds double, ptr %17, i64 %19
  %21 = load double, ptr %20, align 8
  %22 = fcmp oeq double %21, 0x7FF0000000000000
  br i1 %22, label %23, label %27

23:                                               ; preds = %16
  %24 = load i32, ptr %7, align 4
  %25 = load i32, ptr %4, align 4
  %26 = icmp ne i32 %24, %25
  br label %27

27:                                               ; preds = %23, %16
  %28 = phi i1 [ false, %16 ], [ %26, %23 ]
  br i1 %28, label %29, label %38

29:                                               ; preds = %27
  %30 = load i32, ptr %7, align 4
  %31 = add nsw i32 %30, -1
  store i32 %31, ptr %7, align 4
  %32 = load i32, ptr %7, align 4
  %33 = icmp eq i32 %32, -1
  br i1 %33, label %34, label %37

34:                                               ; preds = %29
  %35 = load i32, ptr %6, align 4
  %36 = sub nsw i32 %35, 1
  store i32 %36, ptr %7, align 4
  br label %37

37:                                               ; preds = %34, %29
  br label %16, !llvm.loop !23

38:                                               ; preds = %27
  %39 = load i32, ptr %7, align 4
  ret i32 %39
}

; Function Attrs: mustprogress uwtable
define internal noundef double @_ZL16antimeridian_minPKdi(ptr noundef %0, i32 noundef %1) #1 {
  %3 = alloca double, align 8
  %4 = alloca ptr, align 8
  %5 = alloca i32, align 4
  %6 = alloca double, align 8
  %7 = alloca double, align 8
  %8 = alloca i32, align 4
  %9 = alloca i8, align 1
  %10 = alloca i32, align 4
  %11 = alloca i32, align 4
  %12 = alloca double, align 8
  store ptr %0, ptr %4, align 8
  store i32 %1, ptr %5, align 4
  store double 0x7FF0000000000000, ptr %6, align 8
  store double 0x7FF0000000000000, ptr %7, align 8
  store i32 0, ptr %8, align 4
  store i8 0, ptr %9, align 1
  store i32 0, ptr %10, align 4
  br label %13

13:                                               ; preds = %105, %2
  %14 = load i32, ptr %10, align 4
  %15 = load i32, ptr %5, align 4
  %16 = icmp slt i32 %14, %15
  br i1 %16, label %17, label %108

17:                                               ; preds = %13
  %18 = load ptr, ptr %4, align 8
  %19 = load i32, ptr %10, align 4
  %20 = sext i32 %19 to i64
  %21 = getelementptr inbounds double, ptr %18, i64 %20
  %22 = load double, ptr %21, align 8
  %23 = fcmp oeq double %22, 0x7FF0000000000000
  br i1 %23, label %24, label %25

24:                                               ; preds = %17
  br label %105

25:                                               ; preds = %17
  %26 = load i32, ptr %10, align 4
  %27 = load ptr, ptr %4, align 8
  %28 = load i32, ptr %5, align 4
  %29 = call noundef i32 @_ZL19find_previous_indexiPKdi(i32 noundef %26, ptr noundef %27, i32 noundef %28)
  store i32 %29, ptr %11, align 4
  %30 = load ptr, ptr %4, align 8
  %31 = load i32, ptr %11, align 4
  %32 = sext i32 %31 to i64
  %33 = getelementptr inbounds double, ptr %30, i64 %32
  %34 = load double, ptr %33, align 8
  %35 = load ptr, ptr %4, align 8
  %36 = load i32, ptr %10, align 4
  %37 = sext i32 %36 to i64
  %38 = getelementptr inbounds double, ptr %35, i64 %37
  %39 = load double, ptr %38, align 8
  %40 = fsub double %34, %39
  store double %40, ptr %12, align 8
  %41 = load double, ptr %12, align 8
  %42 = fcmp oge double %41, 2.000000e+02
  br i1 %42, label %43, label %54

43:                                               ; preds = %25
  %44 = load double, ptr %12, align 8
  %45 = fcmp une double %44, 0x7FF0000000000000
  br i1 %45, label %46, label %54

46:                                               ; preds = %43
  %47 = load i32, ptr %8, align 4
  %48 = icmp eq i32 %47, 0
  br i1 %48, label %49, label %51

49:                                               ; preds = %46
  %50 = load double, ptr %7, align 8
  store double %50, ptr %6, align 8
  br label %51

51:                                               ; preds = %49, %46
  %52 = load i32, ptr %8, align 4
  %53 = add nsw i32 %52, 1
  store i32 %53, ptr %8, align 4
  store i8 0, ptr %9, align 1
  br label %73

54:                                               ; preds = %43, %25
  %55 = load double, ptr %12, align 8
  %56 = fcmp ole double %55, -2.000000e+02
  br i1 %56, label %57, label %72

57:                                               ; preds = %54
  %58 = load double, ptr %12, align 8
  %59 = fcmp une double %58, 0x7FF0000000000000
  br i1 %59, label %60, label %72

60:                                               ; preds = %57
  %61 = load i32, ptr %8, align 4
  %62 = icmp eq i32 %61, 0
  br i1 %62, label %63, label %69

63:                                               ; preds = %60
  %64 = load ptr, ptr %4, align 8
  %65 = load i32, ptr %10, align 4
  %66 = sext i32 %65 to i64
  %67 = getelementptr inbounds double, ptr %64, i64 %66
  %68 = load double, ptr %67, align 8
  store double %68, ptr %6, align 8
  br label %69

69:                                               ; preds = %63, %60
  %70 = load i32, ptr %8, align 4
  %71 = add nsw i32 %70, 1
  store i32 %71, ptr %8, align 4
  store i8 1, ptr %9, align 1
  br label %72

72:                                               ; preds = %69, %57, %54
  br label %73

73:                                               ; preds = %72, %51
  %74 = load i8, ptr %9, align 1
  %75 = trunc i8 %74 to i1
  br i1 %75, label %76, label %90

76:                                               ; preds = %73
  %77 = load ptr, ptr %4, align 8
  %78 = load i32, ptr %10, align 4
  %79 = sext i32 %78 to i64
  %80 = getelementptr inbounds double, ptr %77, i64 %79
  %81 = load double, ptr %80, align 8
  %82 = load double, ptr %6, align 8
  %83 = fcmp olt double %81, %82
  br i1 %83, label %84, label %90

84:                                               ; preds = %76
  %85 = load ptr, ptr %4, align 8
  %86 = load i32, ptr %10, align 4
  %87 = sext i32 %86 to i64
  %88 = getelementptr inbounds double, ptr %85, i64 %87
  %89 = load double, ptr %88, align 8
  store double %89, ptr %6, align 8
  br label %90

90:                                               ; preds = %84, %76, %73
  %91 = load ptr, ptr %4, align 8
  %92 = load i32, ptr %10, align 4
  %93 = sext i32 %92 to i64
  %94 = getelementptr inbounds double, ptr %91, i64 %93
  %95 = load double, ptr %94, align 8
  %96 = load double, ptr %7, align 8
  %97 = fcmp olt double %95, %96
  br i1 %97, label %98, label %104

98:                                               ; preds = %90
  %99 = load ptr, ptr %4, align 8
  %100 = load i32, ptr %10, align 4
  %101 = sext i32 %100 to i64
  %102 = getelementptr inbounds double, ptr %99, i64 %101
  %103 = load double, ptr %102, align 8
  store double %103, ptr %7, align 8
  br label %104

104:                                              ; preds = %98, %90
  br label %105

105:                                              ; preds = %104, %24
  %106 = load i32, ptr %10, align 4
  %107 = add nsw i32 %106, 1
  store i32 %107, ptr %10, align 4
  br label %13, !llvm.loop !16

108:                                              ; preds = %13
  %109 = load i32, ptr %8, align 4
  %110 = icmp eq i32 %109, 2
  br i1 %110, label %111, label %113

111:                                              ; preds = %108
  %112 = load double, ptr %6, align 8
  store double %112, ptr %3, align 8
  br label %120

113:                                              ; preds = %108
  %114 = load i32, ptr %8, align 4
  %115 = icmp eq i32 %114, 4
  br i1 %115, label %116, label %117

116:                                              ; preds = %113
  store double -1.800000e+02, ptr %3, align 8
  br label %120

117:                                              ; preds = %113
  br label %118

118:                                              ; preds = %117
  %119 = load double, ptr %7, align 8
  store double %119, ptr %3, align 8
  br label %120

120:                                              ; preds = %118, %116, %111
  %121 = load double, ptr %3, align 8
  ret double %121
}