; Function Attrs: mustprogress nofree norecurse nosync nounwind willreturn memory(argmem: read) uwtable
define internal fastcc noundef double @_ZL16antimeridian_minPKdi(ptr nocapture noundef readonly %0, i32 noundef %1) unnamed_addr #21 {
  %3 = icmp sgt i32 %1, 0
  br i1 %3, label %.lr.ph.preheader, label %._crit_edge.thread

.lr.ph.preheader:                                 ; preds = %2
  %wide.trip.count = zext nneg i32 %1 to i64
  br label %.lr.ph

.lr.ph:                                           ; preds = %.lr.ph.preheader, %42
  %indvars.iv = phi i64 [ 0, %.lr.ph.preheader ], [ %indvars.iv.next, %42 ]
  %.04171 = phi double [ 0x7FF0000000000000, %.lr.ph.preheader ], [ %.5, %42 ]
  %.04368 = phi i1 [ false, %.lr.ph.preheader ], [ %.245, %42 ]
  %.04667 = phi i32 [ 0, %.lr.ph.preheader ], [ %.248, %42 ]
  %.04966 = phi double [ 0x7FF0000000000000, %.lr.ph.preheader ], [ %.150, %42 ]
  %4 = getelementptr inbounds double, ptr %0, i64 %indvars.iv
  %5 = load double, ptr %4, align 8
  %6 = fcmp oeq double %5, 0x7FF0000000000000
  br i1 %6, label %42, label %7

7:                                                ; preds = %.lr.ph
  %8 = icmp eq i64 %indvars.iv, 0
  %9 = trunc nuw nsw i64 %indvars.iv to i32
  %spec.select.i = select i1 %8, i32 %1, i32 %9
  %.113.i = add nsw i32 %spec.select.i, -1
  %10 = sext i32 %.113.i to i64
  %11 = getelementptr inbounds double, ptr %0, i64 %10
  %12 = load double, ptr %11, align 8
  %13 = fcmp oeq double %12, 0x7FF0000000000000
  %14 = zext i32 %.113.i to i64
  %15 = icmp ne i64 %indvars.iv, %14
  %16 = and i1 %15, %13
  br i1 %16, label %.lr.ph.i, label %_ZL19find_previous_indexiPKdi.exit

.lr.ph.i:                                         ; preds = %7, %.lr.ph.i
  %.114.i = phi i32 [ %.1.i, %.lr.ph.i ], [ %.113.i, %7 ]
  %17 = icmp eq i32 %.114.i, 0
  %spec.select12.i = select i1 %17, i32 %1, i32 %.114.i
  %.1.i = add nsw i32 %spec.select12.i, -1
  %18 = sext i32 %.1.i to i64
  %19 = getelementptr inbounds double, ptr %0, i64 %18
  %20 = load double, ptr %19, align 8
  %21 = fcmp oeq double %20, 0x7FF0000000000000
  %22 = zext i32 %.1.i to i64
  %23 = icmp ne i64 %indvars.iv, %22
  %24 = and i1 %21, %23
  br i1 %24, label %.lr.ph.i, label %_ZL19find_previous_indexiPKdi.exit, !llvm.loop !18

_ZL19find_previous_indexiPKdi.exit:               ; preds = %.lr.ph.i, %7
  %25 = phi double [ %12, %7 ], [ %20, %.lr.ph.i ]
  %26 = fsub double %25, %5
  %27 = fcmp oge double %26, 2.000000e+02
  %28 = fcmp une double %26, 0x7FF0000000000000
  %or.cond = and i1 %27, %28
  br i1 %or.cond, label %.thread62, label %31

.thread62:                                        ; preds = %_ZL19find_previous_indexiPKdi.exit
  %29 = icmp eq i32 %.04667, 0
  %.1 = select i1 %29, double %.04966, double %.04171
  %30 = add nsw i32 %.04667, 1
  br label %39

31:                                               ; preds = %_ZL19find_previous_indexiPKdi.exit
  %32 = fcmp ole double %26, -2.000000e+02
  %or.cond3 = and i1 %32, %28
  br i1 %or.cond3, label %.thread, label %35

.thread:                                          ; preds = %31
  %33 = icmp eq i32 %.04667, 0
  %.2 = select i1 %33, double %5, double %.04171
  %34 = add nsw i32 %.04667, 1
  br label %36

35:                                               ; preds = %31
  br i1 %.04368, label %36, label %39

36:                                               ; preds = %.thread, %35
  %.361 = phi double [ %.2, %.thread ], [ %.04171, %35 ]
  %.14758 = phi i32 [ %34, %.thread ], [ %.04667, %35 ]
  %37 = fcmp olt double %5, %.361
  br i1 %37, label %38, label %39

38:                                               ; preds = %36
  br label %39

39:                                               ; preds = %.thread62, %38, %36, %35
  %.14459 = phi i1 [ true, %38 ], [ true, %36 ], [ false, %35 ], [ false, %.thread62 ]
  %.14757 = phi i32 [ %.14758, %38 ], [ %.14758, %36 ], [ %.04667, %35 ], [ %30, %.thread62 ]
  %.4 = phi double [ %5, %38 ], [ %.361, %36 ], [ %.04171, %35 ], [ %.1, %.thread62 ]
  %40 = fcmp olt double %5, %.04966
  br i1 %40, label %41, label %42

41:                                               ; preds = %39
  br label %42

42:                                               ; preds = %39, %41, %.lr.ph
  %.150 = phi double [ %.04966, %.lr.ph ], [ %5, %41 ], [ %.04966, %39 ]
  %.248 = phi i32 [ %.04667, %.lr.ph ], [ %.14757, %41 ], [ %.14757, %39 ]
  %.245 = phi i1 [ %.04368, %.lr.ph ], [ %.14459, %41 ], [ %.14459, %39 ]
  %.5 = phi double [ %.04171, %.lr.ph ], [ %.4, %41 ], [ %.4, %39 ]
  %indvars.iv.next = add nuw nsw i64 %indvars.iv, 1
  %exitcond.not = icmp eq i64 %indvars.iv.next, %wide.trip.count
  br i1 %exitcond.not, label %._crit_edge, label %.lr.ph, !llvm.loop !19

._crit_edge:                                      ; preds = %42
  switch i32 %.248, label %44 [
    i32 2, label %._crit_edge.thread
    i32 4, label %43
  ]

43:                                               ; preds = %._crit_edge
  br label %._crit_edge.thread

44:                                               ; preds = %._crit_edge
  br label %._crit_edge.thread

._crit_edge.thread:                               ; preds = %2, %._crit_edge, %44, %43
  %.0 = phi double [ -1.800000e+02, %43 ], [ %.5, %._crit_edge ], [ %.150, %44 ], [ 0x7FF0000000000000, %2 ]
  ret double %.0
}